; Function Attrs: mustprogress nounwind uwtable
define dso_local void @_ZNK4llvm3pdb9PDBSymbol12findChildrenENS0_11PDB_SymTypeENS_9StringRefENS0_19PDB_NameSearchFlagsE(ptr dead_on_unwind noalias writable sret(%"class.std::unique_ptr.12") align 8 %0, ptr nocapture noundef nonnull readonly align 8 dereferenceable(32) %1, i32 noundef %2, ptr %3, i64 %4, i32 noundef %5) local_unnamed_addr #2 align 2 {
  %7 = getelementptr inbounds nuw i8, ptr %1, i64 24
  %8 = load ptr, ptr %7, align 8
  %9 = load ptr, ptr %8, align 8
  %10 = getelementptr inbounds i8, ptr %9, i64 32
  %11 = load ptr, ptr %10, align 8
  tail call void %11(ptr dead_on_unwind writable sret(%"class.std::unique_ptr.12") align 8 %0, ptr noundef nonnull align 8 dereferenceable(8) %8, i32 noundef %2, ptr %3, i64 %4, i32 noundef %5) #12
  ret void
}